target datalayout = "e-m:e-p270:32:32-p271:32:32-p272:64:64-i64:64-i128:128-f80:128-n8:16:32:64-S128"
target triple = "x86_64-pc-linux-gnu"

%struct.png_struct_def = type { [1 x %struct.__jmp_buf_tag], ptr, ptr, i64, ptr, ptr, ptr, ptr, ptr, ptr, ptr, ptr, ptr, i8, i8, i32, i32, i32, i32, %struct.z_stream_s, ptr, i32, i32, i32, i32, i32, i32, i32, i32, i32, i32, i32, i32, i32, i32, i32, i32, i32, i32, i32, i32, i32, i64, i32, i32, i32, ptr, ptr, ptr, ptr, i64, i32, i32, ptr, i16, i32, i16, i8, i8, i8, i8, i8, i8, i8, i8, i8, i8, i8, i8, i8, i8, i8, i16, i8, i32, %struct.png_color_16_struct, %struct.png_color_16_struct, ptr, i32, i32, %struct.png_xy, i32, i32, i32, i32, i32, ptr, ptr, ptr, ptr, ptr, ptr, %struct.png_color_8_struct, %struct.png_color_8_struct, ptr, %struct.png_color_16_struct, ptr, ptr, ptr, ptr, ptr, ptr, ptr, ptr, ptr, i32, i32, i64, i64, i64, i64, i32, i32, ptr, ptr, i32, [29 x i8], i32, ptr, ptr, i32, i32, ptr, i8, i8, i16, i16, ptr, i32, i8, ptr, ptr, ptr, ptr, ptr, ptr, ptr, i8, i32, i32, i32, i64, %struct.png_unknown_chunk_t, i64, ptr, i64, i32, i32, ptr, [4 x ptr] }
%struct.__jmp_buf_tag = type { [8 x i64], i32, %struct.__sigset_t }
%struct.__sigset_t = type { [16 x i64] }
%struct.z_stream_s = type { ptr, i32, i64, ptr, i32, i64, ptr, ptr, ptr, ptr, ptr, i32, i64, i64 }
%struct.png_xy = type { i32, i32, i32, i32, i32, i32, i32, i32 }
%struct.png_color_8_struct = type { i8, i8, i8, i8, i8 }
%struct.png_color_16_struct = type { i8, i16, i16, i16, i16 }
%struct.png_unknown_chunk_t = type { [5 x i8], ptr, i64, i8 }

; Function Attrs: nounwind uwtable
define i32 @png_resolve_file_gamma(ptr noalias noundef %0) #0 {
  %2 = alloca i32, align 4
  %3 = alloca ptr, align 8
  %4 = alloca i32, align 4
  %5 = alloca i32, align 4
  store ptr %0, ptr %3, align 8, !tbaa !3
  call void @llvm.lifetime.start.p0(i64 4, ptr %4) #7
  %6 = load ptr, ptr %3, align 8, !tbaa !3
  %7 = getelementptr inbounds nuw %struct.png_struct_def, ptr %6, i32 0, i32 83
  %8 = load i32, ptr %7, align 8, !tbaa !87
  store i32 %8, ptr %4, align 4, !tbaa !8
  %9 = load i32, ptr %4, align 4, !tbaa !8
  %10 = icmp ne i32 %9, 0
  br i1 %10, label %11, label %13

11:                                               ; preds = %1
  %12 = load i32, ptr %4, align 4, !tbaa !8
  store i32 %12, ptr %2, align 4
  store i32 1, ptr %5, align 4
  br label %41

13:                                               ; preds = %1
  %14 = load ptr, ptr %3, align 8, !tbaa !3
  %15 = getelementptr inbounds nuw %struct.png_struct_def, ptr %14, i32 0, i32 84
  %16 = load i32, ptr %15, align 4, !tbaa !94
  store i32 %16, ptr %4, align 4, !tbaa !8
  %17 = load i32, ptr %4, align 4, !tbaa !8
  %18 = icmp ne i32 %17, 0
  br i1 %18, label %19, label %21

19:                                               ; preds = %13
  %20 = load i32, ptr %4, align 4, !tbaa !8
  store i32 %20, ptr %2, align 4
  store i32 1, ptr %5, align 4
  br label %41

21:                                               ; preds = %13
  %22 = load ptr, ptr %3, align 8, !tbaa !3
  %23 = getelementptr inbounds nuw %struct.png_struct_def, ptr %22, i32 0, i32 85
  %24 = load i32, ptr %23, align 8, !tbaa !36
  store i32 %24, ptr %4, align 4, !tbaa !8
  %25 = load i32, ptr %4, align 4, !tbaa !8
  %26 = icmp ne i32 %25, 0
  br i1 %26, label %27, label %29

27:                                               ; preds = %21
  %28 = load i32, ptr %4, align 4, !tbaa !8
  store i32 %28, ptr %2, align 4
  store i32 1, ptr %5, align 4
  br label %41

29:                                               ; preds = %21
  %30 = load ptr, ptr %3, align 8, !tbaa !3
  %31 = getelementptr inbounds nuw %struct.png_struct_def, ptr %30, i32 0, i32 82
  %32 = load i32, ptr %31, align 4, !tbaa !37
  %33 = icmp ne i32 %32, 0
  br i1 %33, label %34, label %39

34:                                               ; preds = %29
  %35 = load ptr, ptr %3, align 8, !tbaa !3
  %36 = getelementptr inbounds nuw %struct.png_struct_def, ptr %35, i32 0, i32 82
  %37 = load i32, ptr %36, align 4, !tbaa !37
  %38 = call i32 @png_reciprocal(i32 noundef %37)
  store i32 %38, ptr %4, align 4, !tbaa !8
  br label %39

39:                                               ; preds = %34, %29
  %40 = load i32, ptr %4, align 4, !tbaa !8
  store i32 %40, ptr %2, align 4
  store i32 1, ptr %5, align 4
  br label %41

41:                                               ; preds = %39, %27, %19, %11
  call void @llvm.lifetime.end.p0(i64 4, ptr %4) #7
  %42 = load i32, ptr %2, align 4
  ret i32 %42
}