; Function Attrs: nounwind uwtable
define i32 @png_resolve_file_gamma(ptr noalias noundef readonly captures(none) %0) local_unnamed_addr #0 {
  %2 = getelementptr inbounds nuw i8, ptr %0, i64 720
  %3 = load i32, ptr %2, align 8, !tbaa !97
  %.not = icmp eq i32 %3, 0
  br i1 %.not, label %4, label %15

4:                                                ; preds = %1
  %5 = getelementptr inbounds nuw i8, ptr %0, i64 724
  %6 = load i32, ptr %5, align 4, !tbaa !131
  %.not17 = icmp eq i32 %6, 0
  br i1 %.not17, label %7, label %15

7:                                                ; preds = %4
  %8 = getelementptr inbounds nuw i8, ptr %0, i64 728
  %9 = load i32, ptr %8, align 8, !tbaa !49
  %.not18 = icmp eq i32 %9, 0
  br i1 %.not18, label %10, label %15

10:                                               ; preds = %7
  %11 = getelementptr inbounds nuw i8, ptr %0, i64 716
  %12 = load i32, ptr %11, align 4, !tbaa !50
  %.not19 = icmp eq i32 %12, 0
  br i1 %.not19, label %15, label %13

13:                                               ; preds = %10
  %14 = tail call i32 @png_reciprocal(i32 noundef %12) #11
  br label %15

15:                                               ; preds = %10, %13, %7, %4, %1
  %.012 = phi i32 [ %3, %1 ], [ %6, %4 ], [ %9, %7 ], [ %14, %13 ], [ 0, %10 ]
  ret i32 %.012
}